target datalayout = "e-m:e-p270:32:32-p271:32:32-p272:64:64-i64:64-i128:128-f80:128-n8:16:32:64-S128"
target triple = "x86_64-pc-linux-gnu"

%struct.FileTableRecord = type { i32, ptr, ptr, i32 }

@.str.1 = private unnamed_addr constant [46 x i8] c"src/jdk.jdwp.agent/share/native/libjdwp/SDE.c\00", align 1
@fileTable = internal global ptr null, align 8
@fileTableSize = internal global i32 0, align 4
@fileIndex = internal global i32 0, align 4
@stderr = external global ptr, align 8
@.str.8 = private unnamed_addr constant [17 x i8] c"JDWP exit error \00", align 1
@.str.9 = private unnamed_addr constant [2 x i8] c"\0A\00", align 1
@.str.10 = private unnamed_addr constant [19 x i8] c"%s(%d): %s [%s:%d]\00", align 1
@.str.11 = private unnamed_addr constant [15 x i8] c"SDE file table\00", align 1

; Function Attrs: nounwind uwtable
define internal void @assureFileTableSize() #0 {
  %1 = alloca i64, align 8
  %2 = alloca ptr, align 8
  %3 = alloca i32, align 4
  %4 = load i32, ptr @fileIndex, align 4
  %5 = load i32, ptr @fileTableSize, align 4
  %6 = icmp sge i32 %4, %5
  br i1 %6, label %7, label %40

7:                                                ; preds = %0
  %8 = load i32, ptr @fileTableSize, align 4
  %9 = icmp eq i32 %8, 0
  br i1 %9, label %10, label %11

10:                                               ; preds = %7
  br label %14

11:                                               ; preds = %7
  %12 = load i32, ptr @fileTableSize, align 4
  %13 = mul nsw i32 %12, 2
  br label %14

14:                                               ; preds = %11, %10
  %15 = phi i32 [ 10, %10 ], [ %13, %11 ]
  store i32 %15, ptr %3, align 4
  %16 = load i32, ptr %3, align 4
  %17 = mul nsw i32 %16, 32
  %18 = sext i32 %17 to i64
  store i64 %18, ptr %1, align 8
  %19 = load i64, ptr %1, align 8
  %20 = trunc i64 %19 to i32
  %21 = call ptr @jvmtiAllocate(i32 noundef %20)
  store ptr %21, ptr %2, align 8
  %22 = load ptr, ptr %2, align 8
  %23 = icmp eq ptr %22, null
  br i1 %23, label %24, label %27

24:                                               ; preds = %14
  %25 = load ptr, ptr @stderr, align 8
  %26 = call ptr @jvmtiErrorText(i32 noundef 188)
  call void (ptr, ptr, ptr, ptr, ...) @print_message(ptr noundef %25, ptr noundef @.str.8, ptr noundef @.str.9, ptr noundef @.str.10, ptr noundef %26, i32 noundef 188, ptr noundef @.str.11, ptr noundef @.str.1, i32 noundef 358)
  call void @debugInit_exit(i32 noundef 188, ptr noundef @.str.11)
  br label %27

27:                                               ; preds = %24, %14
  %28 = load ptr, ptr @fileTable, align 8
  %29 = icmp ne ptr %28, null
  br i1 %29, label %30, label %37

30:                                               ; preds = %27
  %31 = load ptr, ptr %2, align 8
  %32 = load ptr, ptr @fileTable, align 8
  %33 = load i32, ptr @fileTableSize, align 4
  %34 = mul nsw i32 %33, 32
  %35 = sext i32 %34 to i64
  call void @llvm.memcpy.p0.p0.i64(ptr align 8 %31, ptr align 8 %32, i64 %35, i1 false)
  %36 = load ptr, ptr @fileTable, align 8
  call void @jvmtiDeallocate(ptr noundef %36)
  br label %37

37:                                               ; preds = %30, %27
  %38 = load ptr, ptr %2, align 8
  store ptr %38, ptr @fileTable, align 8
  %39 = load i32, ptr %3, align 4
  store i32 %39, ptr @fileTableSize, align 4
  br label %40

40:                                               ; preds = %37, %0
  ret void
}

; Function Attrs: nounwind uwtable
define internal void @storeFile(i32 noundef %0, ptr noundef %1, ptr noundef %2) #0 {
  %4 = alloca i32, align 4
  %5 = alloca ptr, align 8
  %6 = alloca ptr, align 8
  store i32 %0, ptr %4, align 4
  store ptr %1, ptr %5, align 8
  store ptr %2, ptr %6, align 8
  call void @assureFileTableSize()
  %7 = load i32, ptr %4, align 4
  %8 = load ptr, ptr @fileTable, align 8
  %9 = load i32, ptr @fileIndex, align 4
  %10 = sext i32 %9 to i64
  %11 = getelementptr inbounds %struct.FileTableRecord, ptr %8, i64 %10
  %12 = getelementptr inbounds %struct.FileTableRecord, ptr %11, i32 0, i32 0
  store i32 %7, ptr %12, align 8
  %13 = load ptr, ptr %5, align 8
  %14 = load ptr, ptr @fileTable, align 8
  %15 = load i32, ptr @fileIndex, align 4
  %16 = sext i32 %15 to i64
  %17 = getelementptr inbounds %struct.FileTableRecord, ptr %14, i64 %16
  %18 = getelementptr inbounds %struct.FileTableRecord, ptr %17, i32 0, i32 1
  store ptr %13, ptr %18, align 8
  %19 = load ptr, ptr %6, align 8
  %20 = load ptr, ptr @fileTable, align 8
  %21 = load i32, ptr @fileIndex, align 4
  %22 = sext i32 %21 to i64
  %23 = getelementptr inbounds %struct.FileTableRecord, ptr %20, i64 %22
  %24 = getelementptr inbounds %struct.FileTableRecord, ptr %23, i32 0, i32 2
  store ptr %19, ptr %24, align 8
  %25 = load i32, ptr @fileIndex, align 4
  %26 = add nsw i32 %25, 1
  store i32 %26, ptr @fileIndex, align 4
  ret void
}