; Function Attrs: nounwind uwtable
define internal fastcc void @storeFile(i32 noundef %0, ptr noundef %1, ptr noundef %2) unnamed_addr #0 {
  %4 = load i32, ptr @fileIndex, align 4
  %5 = load i32, ptr @fileTableSize, align 4
  %.not.i = icmp slt i32 %4, %5
  br i1 %.not.i, label %.assureFileTableSize.exit_crit_edge, label %6

.assureFileTableSize.exit_crit_edge:              ; preds = %3
  %.pre = load ptr, ptr @fileTable, align 8
  br label %assureFileTableSize.exit

6:                                                ; preds = %3
  %7 = icmp eq i32 %5, 0
  %8 = shl nsw i32 %5, 1
  %9 = select i1 %7, i32 10, i32 %8
  %10 = shl nsw i32 %9, 5
  %11 = tail call ptr @jvmtiAllocate(i32 noundef %10) #11
  %12 = icmp eq ptr %11, null
  br i1 %12, label %13, label %16

13:                                               ; preds = %6
  %14 = load ptr, ptr @stderr, align 8
  %15 = tail call ptr @jvmtiErrorText(i32 noundef 188) #11
  tail call void (ptr, ptr, ptr, ptr, ...) @print_message(ptr noundef %14, ptr noundef nonnull @.str.8, ptr noundef nonnull @.str.9, ptr noundef nonnull @.str.10, ptr noundef %15, i32 noundef 188, ptr noundef nonnull @.str.11, ptr noundef nonnull @.str.1, i32 noundef 358) #11
  tail call void @debugInit_exit(i32 noundef 188, ptr noundef nonnull @.str.11) #11
  br label %16

16:                                               ; preds = %13, %6
  %17 = load ptr, ptr @fileTable, align 8
  %.not6.i = icmp eq ptr %17, null
  br i1 %.not6.i, label %22, label %18

18:                                               ; preds = %16
  %19 = load i32, ptr @fileTableSize, align 4
  %20 = shl nsw i32 %19, 5
  %21 = sext i32 %20 to i64
  tail call void @llvm.memcpy.p0.p0.i64(ptr align 8 %11, ptr nonnull align 8 %17, i64 %21, i1 false)
  tail call void @jvmtiDeallocate(ptr noundef nonnull %17) #11
  br label %22

22:                                               ; preds = %18, %16
  store ptr %11, ptr @fileTable, align 8
  store i32 %9, ptr @fileTableSize, align 4
  %.pre2 = load i32, ptr @fileIndex, align 4
  br label %assureFileTableSize.exit

assureFileTableSize.exit:                         ; preds = %.assureFileTableSize.exit_crit_edge, %22
  %23 = phi i32 [ %4, %.assureFileTableSize.exit_crit_edge ], [ %.pre2, %22 ]
  %24 = phi ptr [ %.pre, %.assureFileTableSize.exit_crit_edge ], [ %11, %22 ]
  %25 = sext i32 %23 to i64
  %26 = getelementptr inbounds %struct.FileTableRecord, ptr %24, i64 %25
  store i32 %0, ptr %26, align 8
  %27 = getelementptr inbounds %struct.FileTableRecord, ptr %24, i64 %25, i32 1
  store ptr %1, ptr %27, align 8
  %28 = getelementptr inbounds %struct.FileTableRecord, ptr %24, i64 %25, i32 2
  store ptr %2, ptr %28, align 8
  %29 = add nsw i32 %23, 1
  store i32 %29, ptr @fileIndex, align 4
  ret void
}